(lp0
S'poi'
p1
aS'deferred_income'
p2
aS'long_term_incentive'
p3
aS'from_messages'
p4
aS'salary'
p5
aS'total_stock_value'
p6
aS'from_this_person_to_poi'
p7
aS'from_poi_to_this_person'
p8
aS'restricted_stock'
p9
a.